target datalayout = "e-m:e-p270:32:32-p271:32:32-p272:64:64-i64:64-i128:128-f80:128-n8:16:32:64-S128"
target triple = "x86_64-unknown-linux-gnu"

%"struct.node::AssertionInfo" = type { ptr, ptr, ptr }
%"class.v8::IndirectHandleBase" = type { ptr }
%"struct.std::_Vector_base.301" = type { %"struct.std::_Vector_base<v8::Local<v8::SharedArrayBuffer>, std::allocator<v8::Local<v8::SharedArrayBuffer>>>::_Vector_impl" }
%"struct.std::_Vector_base<v8::Local<v8::SharedArrayBuffer>, std::allocator<v8::Local<v8::SharedArrayBuffer>>>::_Vector_impl" = type { %"struct.std::_Vector_base<v8::Local<v8::SharedArrayBuffer>, std::allocator<v8::Local<v8::SharedArrayBuffer>>>::_Vector_impl_data" }
%"struct.std::_Vector_base<v8::Local<v8::SharedArrayBuffer>, std::allocator<v8::Local<v8::SharedArrayBuffer>>>::_Vector_impl_data" = type { ptr, ptr, ptr }
%"class.v8::Local.305" = type { %"class.v8::LocalBase.306" }
%"class.v8::LocalBase.306" = type { %"class.v8::IndirectHandleBase" }
%"class.node::worker::(anonymous namespace)::DeserializerDelegate" = type { %"class.v8::ValueDeserializer::Delegate", ptr, ptr, ptr, ptr, ptr, ptr }
%"class.v8::ValueDeserializer::Delegate" = type { ptr }
%"class.v8::MaybeLocal.498" = type { %"class.v8::Local.305" }

@_ZZN4node6worker12_GLOBAL__N_120DeserializerDelegate26GetSharedArrayBufferFromIdEPN2v87IsolateEjE4args = internal constant %"struct.node::AssertionInfo" { ptr @.str.74, ptr @.str.75, ptr @.str.76 }, align 8

; Function Attrs: mustprogress nounwind uwtable
define linkonce_odr dso_local noundef nonnull align 8 dereferenceable(8) ptr @_ZNKSt6vectorIN2v85LocalINS0_17SharedArrayBufferEEESaIS3_EEixEm(ptr noundef nonnull align 8 dereferenceable(24) %this, i64 noundef %__n) #4 comdat align 2 {
entry:
  %this.addr = alloca ptr, align 8
  %__n.addr = alloca i64, align 8
  store ptr %this, ptr %this.addr, align 8
  store i64 %__n, ptr %__n.addr, align 8
  %this1 = load ptr, ptr %this.addr, align 8
  %_M_impl = getelementptr inbounds %"struct.std::_Vector_base.301", ptr %this1, i32 0, i32 0
  %_M_start = getelementptr inbounds %"struct.std::_Vector_base<v8::Local<v8::SharedArrayBuffer>, std::allocator<v8::Local<v8::SharedArrayBuffer>>>::_Vector_impl_data", ptr %_M_impl, i32 0, i32 0
  %0 = load ptr, ptr %_M_start, align 8
  %1 = load i64, ptr %__n.addr, align 8
  %add.ptr = getelementptr inbounds %"class.v8::Local.305", ptr %0, i64 %1
  ret ptr %add.ptr
}

; Function Attrs: mustprogress nounwind uwtable
define linkonce_odr dso_local noundef i64 @_ZNKSt6vectorIN2v85LocalINS0_17SharedArrayBufferEEESaIS3_EE4sizeEv(ptr noundef nonnull align 8 dereferenceable(24) %this) #4 comdat align 2 {
entry:
  %this.addr = alloca ptr, align 8
  store ptr %this, ptr %this.addr, align 8
  %this1 = load ptr, ptr %this.addr, align 8
  %_M_impl = getelementptr inbounds %"struct.std::_Vector_base.301", ptr %this1, i32 0, i32 0
  %_M_finish = getelementptr inbounds %"struct.std::_Vector_base<v8::Local<v8::SharedArrayBuffer>, std::allocator<v8::Local<v8::SharedArrayBuffer>>>::_Vector_impl_data", ptr %_M_impl, i32 0, i32 1
  %0 = load ptr, ptr %_M_finish, align 8
  %_M_impl2 = getelementptr inbounds %"struct.std::_Vector_base.301", ptr %this1, i32 0, i32 0
  %_M_start = getelementptr inbounds %"struct.std::_Vector_base<v8::Local<v8::SharedArrayBuffer>, std::allocator<v8::Local<v8::SharedArrayBuffer>>>::_Vector_impl_data", ptr %_M_impl2, i32 0, i32 0
  %1 = load ptr, ptr %_M_start, align 8
  %sub.ptr.lhs.cast = ptrtoint ptr %0 to i64
  %sub.ptr.rhs.cast = ptrtoint ptr %1 to i64
  %sub.ptr.sub = sub i64 %sub.ptr.lhs.cast, %sub.ptr.rhs.cast
  %sub.ptr.div = sdiv exact i64 %sub.ptr.sub, 8
  ret i64 %sub.ptr.div
}

; Function Attrs: mustprogress nounwind uwtable
define internal ptr @_ZN4node6worker12_GLOBAL__N_120DeserializerDelegate26GetSharedArrayBufferFromIdEPN2v87IsolateEj(ptr noundef nonnull align 8 dereferenceable(56) %this, ptr noundef %isolate, i32 noundef %clone_id) unnamed_addr #4 align 2 {
entry:
  %that.i = alloca %"class.v8::Local.305", align 8
  %this.addr.i = alloca ptr, align 8
  %retval = alloca %"class.v8::MaybeLocal.498", align 8
  %this.addr = alloca ptr, align 8
  %isolate.addr = alloca ptr, align 8
  %clone_id.addr = alloca i32, align 4
  %agg.tmp = alloca %"class.v8::Local.305", align 8
  store ptr %this, ptr %this.addr, align 8
  store ptr %isolate, ptr %isolate.addr, align 8
  store i32 %clone_id, ptr %clone_id.addr, align 4
  %this1 = load ptr, ptr %this.addr, align 8
  br label %do.body

do.body:                                          ; preds = %entry
  %0 = load i32, ptr %clone_id.addr, align 4
  %conv = zext i32 %0 to i64
  %shared_array_buffers_ = getelementptr inbounds %"class.node::worker::(anonymous namespace)::DeserializerDelegate", ptr %this1, i32 0, i32 4
  %1 = load ptr, ptr %shared_array_buffers_, align 8
  %call = call noundef i64 @_ZNKSt6vectorIN2v85LocalINS0_17SharedArrayBufferEEESaIS3_EE4sizeEv(ptr noundef nonnull align 8 dereferenceable(24) %1) #3
  %cmp = icmp ult i64 %conv, %call
  %lnot = xor i1 %cmp, true
  %lnot2 = xor i1 %lnot, true
  %lnot3 = xor i1 %lnot2, true
  br i1 %lnot3, label %if.then, label %if.end

if.then:                                          ; preds = %do.body
  br label %do.body5

do.body5:                                         ; preds = %if.then
  call void @_ZN4node6AssertERKNS_13AssertionInfoE(ptr noundef nonnull align 8 dereferenceable(24) @_ZZN4node6worker12_GLOBAL__N_120DeserializerDelegate26GetSharedArrayBufferFromIdEPN2v87IsolateEjE4args)
  call void @abort() #16
  unreachable

do.end:                                           ; No predecessors!
  br label %if.end

if.end:                                           ; preds = %do.end, %do.body
  br label %do.end6

do.end6:                                          ; preds = %if.end
  %shared_array_buffers_7 = getelementptr inbounds %"class.node::worker::(anonymous namespace)::DeserializerDelegate", ptr %this1, i32 0, i32 4
  %2 = load ptr, ptr %shared_array_buffers_7, align 8
  %3 = load i32, ptr %clone_id.addr, align 4
  %conv8 = zext i32 %3 to i64
  %call9 = call noundef nonnull align 8 dereferenceable(8) ptr @_ZNKSt6vectorIN2v85LocalINS0_17SharedArrayBufferEEESaIS3_EEixEm(ptr noundef nonnull align 8 dereferenceable(24) %2, i64 noundef %conv8) #3
  call void @llvm.memcpy.p0.p0.i64(ptr align 8 %agg.tmp, ptr align 8 %call9, i64 8, i1 false)
  %coerce.dive = getelementptr inbounds %"class.v8::Local.305", ptr %agg.tmp, i32 0, i32 0
  %coerce.dive10 = getelementptr inbounds %"class.v8::LocalBase.306", ptr %coerce.dive, i32 0, i32 0
  %coerce.dive11 = getelementptr inbounds %"class.v8::IndirectHandleBase", ptr %coerce.dive10, i32 0, i32 0
  %4 = load ptr, ptr %coerce.dive11, align 8
  store ptr %4, ptr %that.i, align 8
  store ptr %retval, ptr %this.addr.i, align 8
  %this3.i = load ptr, ptr %this.addr.i, align 8
  call void @llvm.memcpy.p0.p0.i64(ptr align 8 %this3.i, ptr align 8 %that.i, i64 8, i1 false)
  %coerce.dive12 = getelementptr inbounds %"class.v8::MaybeLocal.498", ptr %retval, i32 0, i32 0
  %coerce.dive13 = getelementptr inbounds %"class.v8::Local.305", ptr %coerce.dive12, i32 0, i32 0
  %coerce.dive14 = getelementptr inbounds %"class.v8::LocalBase.306", ptr %coerce.dive13, i32 0, i32 0
  %coerce.dive15 = getelementptr inbounds %"class.v8::IndirectHandleBase", ptr %coerce.dive14, i32 0, i32 0
  %5 = load ptr, ptr %coerce.dive15, align 8
  ret ptr %5
}