; Function Attrs: mustprogress nounwind uwtable
define internal ptr @_ZN4node6worker12_GLOBAL__N_120DeserializerDelegate26GetSharedArrayBufferFromIdEPN2v87IsolateEj(ptr nocapture noundef nonnull readonly align 8 dereferenceable(56) %this, ptr nocapture readnone %isolate, i32 noundef %clone_id) unnamed_addr #6 align 2 {
entry:
  %conv = zext i32 %clone_id to i64
  %shared_array_buffers_ = getelementptr inbounds i8, ptr %this, i64 32
  %0 = load ptr, ptr %shared_array_buffers_, align 8
  %_M_finish.i = getelementptr inbounds i8, ptr %0, i64 8
  %1 = load ptr, ptr %_M_finish.i, align 8
  %2 = load ptr, ptr %0, align 8
  %sub.ptr.lhs.cast.i = ptrtoint ptr %1 to i64
  %sub.ptr.rhs.cast.i = ptrtoint ptr %2 to i64
  %sub.ptr.sub.i = sub i64 %sub.ptr.lhs.cast.i, %sub.ptr.rhs.cast.i
  %sub.ptr.div.i = ashr exact i64 %sub.ptr.sub.i, 3
  %cmp.not = icmp ugt i64 %sub.ptr.div.i, %conv
  br i1 %cmp.not, label %do.end6, label %do.body5

do.body5:                                         ; preds = %entry
  tail call void @_ZN4node6AssertERKNS_13AssertionInfoE(ptr noundef nonnull align 8 dereferenceable(24) @_ZZN4node6worker12_GLOBAL__N_120DeserializerDelegate26GetSharedArrayBufferFromIdEPN2v87IsolateEjE4args) #26
  tail call void @abort() #27
  unreachable

do.end6:                                          ; preds = %entry
  %add.ptr.i = getelementptr inbounds %"class.v8::Local.305", ptr %2, i64 %conv
  %agg.tmp.sroa.0.0.copyload = load ptr, ptr %add.ptr.i, align 8
  ret ptr %agg.tmp.sroa.0.0.copyload
}